; Function Attrs: nounwind uwtable
define dso_local i32 @nghttp2_session_terminate_session(ptr noundef %0, i32 noundef %1) local_unnamed_addr #1 {
  %3 = getelementptr inbounds nuw i8, ptr %0, i64 2845
  %4 = load i8, ptr %3, align 1, !tbaa !4
  %5 = and i8 %4, 1
  %.not.i = icmp eq i8 %5, 0
  br i1 %.not.i, label %6, label %session_terminate_session.exit

6:                                                ; preds = %2
  %7 = getelementptr inbounds nuw i8, ptr %0, i64 2724
  %8 = load i32, ptr %7, align 4, !tbaa !38
  %9 = getelementptr inbounds nuw i8, ptr %0, i64 952
  store i32 15, ptr %9, align 8, !tbaa !39
  %10 = tail call i32 @nghttp2_session_add_goaway(ptr noundef nonnull %0, i32 noundef %8, i32 noundef %1, ptr noundef null, i64 noundef 0, i8 noundef zeroext 1)
  %.not17.i = icmp eq i32 %10, 0
  br i1 %.not17.i, label %11, label %session_terminate_session.exit

11:                                               ; preds = %6
  %12 = load i8, ptr %3, align 1, !tbaa !4
  %13 = or i8 %12, 1
  store i8 %13, ptr %3, align 1, !tbaa !4
  br label %session_terminate_session.exit

session_terminate_session.exit:                   ; preds = %2, %6, %11
  %.014.i = phi i32 [ 0, %11 ], [ 0, %2 ], [ %10, %6 ]
  ret i32 %.014.i
}